; Function Attrs: inlinehint nofree norecurse nosync nounwind memory(read, argmem: readwrite, inaccessiblemem: none) uwtable
define internal fastcc i32 @dirac_get_se_golomb(ptr noundef captures(none) %0) unnamed_addr #8 {
  %2 = getelementptr inbounds nuw i8, ptr %0, i64 16
  %3 = load i32, ptr %2, align 8, !tbaa !67
  %4 = getelementptr inbounds nuw i8, ptr %0, i64 24
  %5 = load i32, ptr %4, align 8, !tbaa !65
  %6 = load ptr, ptr %0, align 8, !tbaa !63
  %7 = lshr i32 %3, 3
  %8 = zext nneg i32 %7 to i64
  %9 = getelementptr inbounds nuw i8, ptr %6, i64 %8
  %10 = load i32, ptr %9, align 1, !tbaa !61
  %11 = tail call i32 @llvm.bswap.i32(i32 %10)
  %12 = and i32 %3, 7
  %13 = shl i32 %11, %12
  %14 = and i32 %13, -1434451968
  %.not.i = icmp eq i32 %14, 0
  br i1 %.not.i, label %.preheader.i, label %15

15:                                               ; preds = %1
  %16 = lshr i32 %13, 24
  %17 = zext nneg i32 %16 to i64
  %18 = getelementptr inbounds nuw [256 x i8], ptr @ff_interleaved_golomb_vlc_len, i64 0, i64 %17
  %19 = load i8, ptr %18, align 1, !tbaa !61
  %20 = zext i8 %19 to i32
  %21 = add i32 %3, %20
  %..i = tail call i32 @llvm.umin.i32(i32 %5, i32 %21)
  store i32 %..i, ptr %2, align 8, !tbaa !67
  %22 = getelementptr inbounds nuw [256 x i8], ptr @ff_interleaved_ue_golomb_vlc_code, i64 0, i64 %17
  %23 = load i8, ptr %22, align 1, !tbaa !61
  %24 = zext i8 %23 to i32
  br label %get_interleaved_ue_golomb.exit

.preheader.i:                                     ; preds = %1, %39
  %.045.i = phi i32 [ %51, %39 ], [ %13, %1 ]
  %.044.i = phi i32 [ %spec.select56.i, %39 ], [ %3, %1 ]
  %.0.i = phi i32 [ %44, %39 ], [ 1, %1 ]
  %25 = lshr i32 %.045.i, 24
  %26 = zext nneg i32 %25 to i64
  %27 = getelementptr inbounds nuw [256 x i8], ptr @ff_interleaved_golomb_vlc_len, i64 0, i64 %26
  %28 = load i8, ptr %27, align 1, !tbaa !61
  %spec.select57.i = tail call i8 @llvm.umin.i8(i8 %28, i8 8)
  %spec.select.i = zext nneg i8 %spec.select57.i to i32
  %29 = add i32 %.044.i, %spec.select.i
  %spec.select56.i = tail call i32 @llvm.umin.i32(i32 %5, i32 %29)
  %.not54.i = icmp eq i8 %28, 9
  br i1 %.not54.i, label %39, label %30

30:                                               ; preds = %.preheader.i
  %31 = zext i8 %28 to i32
  %32 = add nsw i32 %31, -1
  %33 = ashr i32 %32, 1
  %34 = shl i32 %.0.i, %33
  %35 = getelementptr inbounds nuw [256 x i8], ptr @ff_interleaved_dirac_golomb_vlc_code, i64 0, i64 %26
  %36 = load i8, ptr %35, align 1, !tbaa !61
  %37 = zext i8 %36 to i32
  %38 = or i32 %34, %37
  br label %.loopexit.i

39:                                               ; preds = %.preheader.i
  %40 = shl i32 %.0.i, 4
  %41 = getelementptr inbounds nuw [256 x i8], ptr @ff_interleaved_dirac_golomb_vlc_code, i64 0, i64 %26
  %42 = load i8, ptr %41, align 1, !tbaa !61
  %43 = zext i8 %42 to i32
  %44 = or i32 %40, %43
  %45 = lshr i32 %spec.select56.i, 3
  %46 = zext nneg i32 %45 to i64
  %47 = getelementptr inbounds nuw i8, ptr %6, i64 %46
  %48 = load i32, ptr %47, align 1, !tbaa !61
  %49 = tail call i32 @llvm.bswap.i32(i32 %48)
  %50 = and i32 %spec.select56.i, 7
  %51 = shl i32 %49, %50
  %52 = icmp ult i32 %40, 134217728
  %53 = icmp ult i32 %29, %5
  %54 = select i1 %52, i1 %53, i1 false
  br i1 %54, label %.preheader.i, label %.loopexit.i, !llvm.loop !134

.loopexit.i:                                      ; preds = %39, %30
  %.1.i = phi i32 [ %38, %30 ], [ %44, %39 ]
  store i32 %spec.select56.i, ptr %2, align 8, !tbaa !67
  %55 = add i32 %.1.i, -1
  br label %get_interleaved_ue_golomb.exit

get_interleaved_ue_golomb.exit:                   ; preds = %15, %.loopexit.i
  %56 = phi i32 [ %..i, %15 ], [ %spec.select56.i, %.loopexit.i ]
  %.043.i = phi i32 [ %24, %15 ], [ %55, %.loopexit.i ]
  %.not = icmp eq i32 %.043.i, 0
  br i1 %.not, label %72, label %57

57:                                               ; preds = %get_interleaved_ue_golomb.exit
  %58 = lshr i32 %56, 3
  %59 = zext nneg i32 %58 to i64
  %60 = getelementptr inbounds nuw i8, ptr %6, i64 %59
  %61 = load i8, ptr %60, align 1, !tbaa !61
  %62 = icmp slt i32 %56, %5
  %63 = zext i1 %62 to i32
  %spec.select.i7 = add i32 %56, %63
  %64 = zext i8 %61 to i32
  %65 = and i32 %56, 7
  %66 = shl nuw nsw i32 %64, %65
  %67 = lshr i32 %66, 7
  store i32 %spec.select.i7, ptr %2, align 8, !tbaa !67
  %68 = and i32 %67, 1
  %69 = sub nsw i32 0, %68
  %70 = xor i32 %.043.i, %69
  %71 = add i32 %70, %68
  br label %72

72:                                               ; preds = %57, %get_interleaved_ue_golomb.exit
  %.0 = phi i32 [ %71, %57 ], [ 0, %get_interleaved_ue_golomb.exit ]
  ret i32 %.0
}